target datalayout = "e-m:e-p270:32:32-p271:32:32-p272:64:64-i64:64-i128:128-f80:128-n8:16:32:64-S128"
target triple = "x86_64-pc-linux-gnu"

%struct.H5O_cont_msgs_t = type { i64, i64, ptr }
%struct.H5O_cont_t = type { i64, i64, i32 }

@H5_H5O_cont_t_seq_free_list = global { { i8, [3 x i8], i32, i32, [4 x i8], i64, ptr, ptr }, i64 } { { i8, [3 x i8], i32, i32, [4 x i8], i64, ptr, ptr } { i8 0, [3 x i8] zeroinitializer, i32 0, i32 0, [4 x i8] zeroinitializer, i64 0, ptr @.str.2, ptr null }, i64 24 }, align 8
@H5O_init_g = external global i8, align 1
@H5_libterm_g = external global i8, align 1
@.str.3 = private unnamed_addr constant [102 x i8] c"generated/home/dtcxzyw/WorkSpace/Projects/compilers/llvm-opt-benchmark/bench/hdf5/hdf5/src/H5Ocache.c\00", align 1
@H5E_OHDR_g = external global i64, align 8
@.str.6 = private unnamed_addr constant [25 x i8] c"memory allocation failed\00", align 1
@__func__.H5O__add_cont_msg = private unnamed_addr constant [18 x i8] c"H5O__add_cont_msg\00", align 1
@H5E_NOSPACE_g = external global i64, align 8

; Function Attrs: nounwind uwtable
define internal i32 @H5O__add_cont_msg(ptr noundef %0, ptr noundef %1) #0 {
  %3 = alloca i32, align 4
  %4 = alloca ptr, align 8
  %5 = alloca ptr, align 8
  %6 = alloca i64, align 8
  %7 = alloca i32, align 4
  %8 = alloca i8, align 1
  %9 = alloca i64, align 8
  %10 = alloca ptr, align 8
  %11 = alloca i32, align 4
  store ptr %0, ptr %4, align 8, !tbaa !130
  store ptr %1, ptr %5, align 8, !tbaa !116
  call void @llvm.lifetime.start.p0(i64 8, ptr %6) #7
  call void @llvm.lifetime.start.p0(i64 4, ptr %7) #7
  store i32 0, ptr %7, align 4, !tbaa !17
  call void @llvm.lifetime.start.p0(i64 1, ptr %8) #7
  store i8 0, ptr %8, align 1, !tbaa !9
  %12 = load i8, ptr @H5O_init_g, align 1, !tbaa !9, !range !11, !noundef !12
  %13 = trunc i8 %12 to i1
  br i1 %13, label %18, label %14

14:                                               ; preds = %2
  %15 = load i8, ptr @H5_libterm_g, align 1, !tbaa !9, !range !11, !noundef !12
  %16 = trunc i8 %15 to i1
  %17 = xor i1 %16, true
  br label %18

18:                                               ; preds = %14, %2
  %19 = phi i1 [ true, %2 ], [ %17, %14 ]
  %20 = xor i1 %19, true
  %21 = xor i1 %20, true
  %22 = zext i1 %21 to i32
  %23 = sext i32 %22 to i64
  %24 = call i64 @llvm.expect.i64(i64 %23, i64 1)
  %25 = icmp ne i64 %24, 0
  br i1 %25, label %26, label %116

26:                                               ; preds = %18
  %27 = load ptr, ptr %4, align 8, !tbaa !130
  %28 = getelementptr inbounds nuw %struct.H5O_cont_msgs_t, ptr %27, i32 0, i32 0
  %29 = load i64, ptr %28, align 8, !tbaa !119
  %30 = load ptr, ptr %4, align 8, !tbaa !130
  %31 = getelementptr inbounds nuw %struct.H5O_cont_msgs_t, ptr %30, i32 0, i32 1
  %32 = load i64, ptr %31, align 8, !tbaa !129
  %33 = icmp uge i64 %29, %32
  br i1 %33, label %34, label %83

34:                                               ; preds = %26
  call void @llvm.lifetime.start.p0(i64 8, ptr %9) #7
  %35 = load ptr, ptr %4, align 8, !tbaa !130
  %36 = getelementptr inbounds nuw %struct.H5O_cont_msgs_t, ptr %35, i32 0, i32 1
  %37 = load i64, ptr %36, align 8, !tbaa !129
  %38 = mul i64 %37, 2
  %39 = icmp ugt i64 2, %38
  br i1 %39, label %40, label %41

40:                                               ; preds = %34
  br label %46

41:                                               ; preds = %34
  %42 = load ptr, ptr %4, align 8, !tbaa !130
  %43 = getelementptr inbounds nuw %struct.H5O_cont_msgs_t, ptr %42, i32 0, i32 1
  %44 = load i64, ptr %43, align 8, !tbaa !129
  %45 = mul i64 %44, 2
  br label %46

46:                                               ; preds = %41, %40
  %47 = phi i64 [ 2, %40 ], [ %45, %41 ]
  store i64 %47, ptr %9, align 8, !tbaa !13
  call void @llvm.lifetime.start.p0(i64 8, ptr %10) #7
  %48 = load ptr, ptr %4, align 8, !tbaa !130
  %49 = getelementptr inbounds nuw %struct.H5O_cont_msgs_t, ptr %48, i32 0, i32 2
  %50 = load ptr, ptr %49, align 8, !tbaa !128
  %51 = load i64, ptr %9, align 8, !tbaa !13
  %52 = call ptr @H5FL_seq_realloc(ptr noundef @H5_H5O_cont_t_seq_free_list, ptr noundef %50, i64 noundef %51)
  store ptr %52, ptr %10, align 8, !tbaa !116
  %53 = icmp eq ptr null, %52
  br i1 %53, label %54, label %73

54:                                               ; preds = %46
  br label %55

55:                                               ; preds = %54
  br label %56

56:                                               ; preds = %55
  br label %57

57:                                               ; preds = %56
  %58 = load i64, ptr @H5E_OHDR_g, align 8, !tbaa !13
  %59 = load i64, ptr @H5E_NOSPACE_g, align 8, !tbaa !13
  %60 = call i32 (ptr, ptr, i32, i64, i64, ptr, ...) @H5E_printf_stack(ptr noundef @.str.3, ptr noundef @__func__.H5O__add_cont_msg, i32 noundef 958, i64 noundef %58, i64 noundef %59, ptr noundef @.str.6)
  br label %61

61:                                               ; preds = %57
  br label %62

62:                                               ; preds = %61
  store i8 1, ptr %8, align 1, !tbaa !9
  %63 = load i8, ptr %8, align 1, !tbaa !9, !range !11, !noundef !12
  %64 = trunc i8 %63 to i1
  %65 = zext i1 %64 to i8
  store i8 %65, ptr %8, align 1, !tbaa !9
  br label %66

66:                                               ; preds = %62
  br label %67

67:                                               ; preds = %66
  br label %68

68:                                               ; preds = %67
  store i32 -1, ptr %7, align 4, !tbaa !17
  store i32 10, ptr %11, align 4
  br label %80

69:                                               ; No predecessors!
  br label %70

70:                                               ; preds = %69
  br label %71

71:                                               ; preds = %70
  br label %72

72:                                               ; preds = %71
  br label %73

73:                                               ; preds = %72, %46
  %74 = load i64, ptr %9, align 8, !tbaa !13
  %75 = load ptr, ptr %4, align 8, !tbaa !130
  %76 = getelementptr inbounds nuw %struct.H5O_cont_msgs_t, ptr %75, i32 0, i32 1
  store i64 %74, ptr %76, align 8, !tbaa !129
  %77 = load ptr, ptr %10, align 8, !tbaa !116
  %78 = load ptr, ptr %4, align 8, !tbaa !130
  %79 = getelementptr inbounds nuw %struct.H5O_cont_msgs_t, ptr %78, i32 0, i32 2
  store ptr %77, ptr %79, align 8, !tbaa !128
  store i32 0, ptr %11, align 4
  br label %80

80:                                               ; preds = %68, %73
  call void @llvm.lifetime.end.p0(i64 8, ptr %10) #7
  call void @llvm.lifetime.end.p0(i64 8, ptr %9) #7
  %81 = load i32, ptr %11, align 4
  switch i32 %81, label %118 [
    i32 0, label %82
    i32 10, label %115
  ]

82:                                               ; preds = %80
  br label %83

83:                                               ; preds = %82, %26
  %84 = load ptr, ptr %4, align 8, !tbaa !130
  %85 = getelementptr inbounds nuw %struct.H5O_cont_msgs_t, ptr %84, i32 0, i32 0
  %86 = load i64, ptr %85, align 8, !tbaa !119
  %87 = add i64 %86, 1
  store i64 %87, ptr %85, align 8, !tbaa !119
  store i64 %86, ptr %6, align 8, !tbaa !13
  %88 = load ptr, ptr %5, align 8, !tbaa !116
  %89 = getelementptr inbounds nuw %struct.H5O_cont_t, ptr %88, i32 0, i32 0
  %90 = load i64, ptr %89, align 8, !tbaa !131
  %91 = load ptr, ptr %4, align 8, !tbaa !130
  %92 = getelementptr inbounds nuw %struct.H5O_cont_msgs_t, ptr %91, i32 0, i32 2
  %93 = load ptr, ptr %92, align 8, !tbaa !128
  %94 = load i64, ptr %6, align 8, !tbaa !13
  %95 = getelementptr inbounds nuw %struct.H5O_cont_t, ptr %93, i64 %94
  %96 = getelementptr inbounds nuw %struct.H5O_cont_t, ptr %95, i32 0, i32 0
  store i64 %90, ptr %96, align 8, !tbaa !131
  %97 = load ptr, ptr %5, align 8, !tbaa !116
  %98 = getelementptr inbounds nuw %struct.H5O_cont_t, ptr %97, i32 0, i32 1
  %99 = load i64, ptr %98, align 8, !tbaa !132
  %100 = load ptr, ptr %4, align 8, !tbaa !130
  %101 = getelementptr inbounds nuw %struct.H5O_cont_msgs_t, ptr %100, i32 0, i32 2
  %102 = load ptr, ptr %101, align 8, !tbaa !128
  %103 = load i64, ptr %6, align 8, !tbaa !13
  %104 = getelementptr inbounds nuw %struct.H5O_cont_t, ptr %102, i64 %103
  %105 = getelementptr inbounds nuw %struct.H5O_cont_t, ptr %104, i32 0, i32 1
  store i64 %99, ptr %105, align 8, !tbaa !132
  %106 = load ptr, ptr %5, align 8, !tbaa !116
  %107 = getelementptr inbounds nuw %struct.H5O_cont_t, ptr %106, i32 0, i32 2
  %108 = load i32, ptr %107, align 8, !tbaa !121
  %109 = load ptr, ptr %4, align 8, !tbaa !130
  %110 = getelementptr inbounds nuw %struct.H5O_cont_msgs_t, ptr %109, i32 0, i32 2
  %111 = load ptr, ptr %110, align 8, !tbaa !128
  %112 = load i64, ptr %6, align 8, !tbaa !13
  %113 = getelementptr inbounds nuw %struct.H5O_cont_t, ptr %111, i64 %112
  %114 = getelementptr inbounds nuw %struct.H5O_cont_t, ptr %113, i32 0, i32 2
  store i32 %108, ptr %114, align 8, !tbaa !121
  br label %115

115:                                              ; preds = %83, %80
  br label %116

116:                                              ; preds = %115, %18
  %117 = load i32, ptr %7, align 4, !tbaa !17
  store i32 %117, ptr %3, align 4
  store i32 1, ptr %11, align 4
  br label %118

118:                                              ; preds = %116, %80
  call void @llvm.lifetime.end.p0(i64 1, ptr %8) #7
  call void @llvm.lifetime.end.p0(i64 4, ptr %7) #7
  call void @llvm.lifetime.end.p0(i64 8, ptr %6) #7
  %119 = load i32, ptr %3, align 4
  ret i32 %119
}