; Function Attrs: nounwind uwtable
define internal fastcc range(i32 -1, 1) i32 @H5O__add_cont_msg(ptr noundef captures(none) %0, ptr noundef nonnull readonly captures(none) %1) unnamed_addr #1 {
  %3 = load i8, ptr @H5O_init_g, align 1, !tbaa !3, !range !7, !noundef !8
  %4 = trunc nuw i8 %3 to i1
  %5 = load i8, ptr @H5_libterm_g, align 1, !range !7
  %6 = trunc nuw i8 %5 to i1
  %7 = xor i1 %6, true
  %8 = select i1 %4, i1 true, i1 %7
  br i1 %8, label %9, label %36, !prof !9

9:                                                ; preds = %2
  %10 = load i64, ptr %0, align 8, !tbaa !98
  %11 = getelementptr inbounds nuw i8, ptr %0, i64 8
  %12 = load i64, ptr %11, align 8, !tbaa !108
  %.not = icmp ult i64 %10, %12
  br i1 %.not, label %._crit_edge, label %13

._crit_edge:                                      ; preds = %9
  %.phi.trans.insert = getelementptr inbounds nuw i8, ptr %0, i64 16
  %.pre31 = load ptr, ptr %.phi.trans.insert, align 8, !tbaa !107
  br label %24

13:                                               ; preds = %9
  %14 = shl i64 %12, 1
  %15 = icmp eq i64 %14, 0
  %spec.select = select i1 %15, i64 2, i64 %14
  %16 = getelementptr inbounds nuw i8, ptr %0, i64 16
  %17 = load ptr, ptr %16, align 8, !tbaa !107
  %18 = tail call ptr @H5FL_seq_realloc(ptr noundef nonnull @H5_H5O_cont_t_seq_free_list, ptr noundef %17, i64 noundef %spec.select) #9
  %19 = icmp eq ptr %18, null
  br i1 %19, label %20, label %.thread

.thread:                                          ; preds = %13
  store i64 %spec.select, ptr %11, align 8, !tbaa !108
  store ptr %18, ptr %16, align 8, !tbaa !107
  %.pre = load i64, ptr %0, align 8, !tbaa !98
  br label %24

20:                                               ; preds = %13
  %21 = load i64, ptr @H5E_OHDR_g, align 8, !tbaa !10
  %22 = load i64, ptr @H5E_NOSPACE_g, align 8, !tbaa !10
  %23 = tail call i32 (ptr, ptr, i32, i64, i64, ptr, ...) @H5E_printf_stack(ptr noundef nonnull @.str.3, ptr noundef nonnull @__func__.H5O__add_cont_msg, i32 noundef 958, i64 noundef %21, i64 noundef %22, ptr noundef nonnull @.str.6) #9
  br label %36

24:                                               ; preds = %._crit_edge, %.thread
  %25 = phi ptr [ %18, %.thread ], [ %.pre31, %._crit_edge ]
  %26 = phi i64 [ %.pre, %.thread ], [ %10, %._crit_edge ]
  %27 = add i64 %26, 1
  store i64 %27, ptr %0, align 8, !tbaa !98
  %28 = load i64, ptr %1, align 8, !tbaa !109
  %29 = getelementptr inbounds nuw %struct.H5O_cont_t, ptr %25, i64 %26
  store i64 %28, ptr %29, align 8, !tbaa !109
  %30 = getelementptr inbounds nuw i8, ptr %1, i64 8
  %31 = load i64, ptr %30, align 8, !tbaa !110
  %32 = getelementptr inbounds nuw %struct.H5O_cont_t, ptr %25, i64 %26, i32 1
  store i64 %31, ptr %32, align 8, !tbaa !110
  %33 = getelementptr inbounds nuw i8, ptr %1, i64 16
  %34 = load i32, ptr %33, align 8, !tbaa !101
  %35 = getelementptr inbounds nuw %struct.H5O_cont_t, ptr %25, i64 %26, i32 2
  store i32 %34, ptr %35, align 8, !tbaa !101
  br label %36

36:                                               ; preds = %20, %2, %24
  %.023 = phi i32 [ -1, %20 ], [ 0, %24 ], [ 0, %2 ]
  ret i32 %.023
}